target datalayout = "e-m:e-p270:32:32-p271:32:32-p272:64:64-i64:64-i128:128-f80:128-n8:16:32:64-S128"
target triple = "x86_64-pc-linux-gnu"

%"class.std::__cxx11::basic_string" = type { %"struct.std::__cxx11::basic_string<char>::_Alloc_hider", i64, %union.anon }
%"struct.std::__cxx11::basic_string<char>::_Alloc_hider" = type { ptr }
%union.anon = type { i64, [8 x i8] }
%"class.std::allocator" = type { i8 }
%struct.XML_Encoding = type { [256 x i32], ptr, ptr, ptr }

@.str.36 = private unnamed_addr constant [6 x i8] c"ascii\00", align 1
@.str.37 = private unnamed_addr constant [7 x i8] c"cp1252\00", align 1
@.str.38 = private unnamed_addr constant [15 x i8] c"ANSI_X3.4-1968\00", align 1
@.str.55 = private unnamed_addr constant [50 x i8] c"basic_string: construction from null is not valid\00", align 1

; Function Attrs: mustprogress nounwind uwtable
define linkonce_odr dso_local noundef i64 @_ZNSt11char_traitsIcE6lengthEPKc(ptr noundef %0) #5 comdat align 2 {
  %2 = alloca ptr, align 8
  store ptr %0, ptr %2, align 8
  %3 = load ptr, ptr %2, align 8
  %4 = call i64 @strlen(ptr noundef %3) #3
  ret i64 %4
}

; Function Attrs: mustprogress nounwind uwtable
define linkonce_odr dso_local void @_ZNSt7__cxx1112basic_stringIcSt11char_traitsIcESaIcEE12_Alloc_hiderD2Ev(ptr noundef nonnull align 8 dereferenceable(8) %0) unnamed_addr #5 comdat align 2 {
  %2 = alloca ptr, align 8
  store ptr %0, ptr %2, align 8
  %3 = load ptr, ptr %2, align 8
  call void @_ZNSaIcED2Ev(ptr noundef nonnull align 1 dereferenceable(1) %3) #3
  ret void
}

; Function Attrs: mustprogress nounwind uwtable
define linkonce_odr dso_local noundef zeroext i1 @_ZSteqIcSt11char_traitsIcESaIcEEbPKT_RKNSt7__cxx1112basic_stringIS3_T0_T1_EE(ptr noundef %0, ptr noundef nonnull align 8 dereferenceable(32) %1) #5 comdat {
  %3 = alloca ptr, align 8
  %4 = alloca ptr, align 8
  store ptr %0, ptr %3, align 8
  store ptr %1, ptr %4, align 8
  %5 = load ptr, ptr %4, align 8
  %6 = load ptr, ptr %3, align 8
  %7 = call noundef i32 @_ZNKSt7__cxx1112basic_stringIcSt11char_traitsIcESaIcEE7compareEPKc(ptr noundef nonnull align 8 dereferenceable(32) %5, ptr noundef %6) #3
  %8 = icmp eq i32 %7, 0
  ret i1 %8
}

; Function Attrs: mustprogress uwtable
define linkonce_odr dso_local void @_ZNSt7__cxx1112basic_stringIcSt11char_traitsIcESaIcEEC2IS3_EEPKcRKS3_(ptr noundef nonnull align 8 dereferenceable(32) %0, ptr noundef %1, ptr noundef nonnull align 1 dereferenceable(1) %2) unnamed_addr #4 comdat align 2 personality ptr @__gxx_personality_v0 {
  %4 = alloca ptr, align 8
  %5 = alloca ptr, align 8
  %6 = alloca ptr, align 8
  %7 = alloca ptr, align 8
  %8 = alloca i32, align 4
  %9 = alloca ptr, align 8
  store ptr %0, ptr %4, align 8
  store ptr %1, ptr %5, align 8
  store ptr %2, ptr %6, align 8
  %10 = load ptr, ptr %4, align 8
  %11 = getelementptr inbounds %"class.std::__cxx11::basic_string", ptr %10, i32 0, i32 0
  %12 = call noundef ptr @_ZNSt7__cxx1112basic_stringIcSt11char_traitsIcESaIcEE13_M_local_dataEv(ptr noundef nonnull align 8 dereferenceable(32) %10)
  %13 = load ptr, ptr %6, align 8
  call void @_ZNSt7__cxx1112basic_stringIcSt11char_traitsIcESaIcEE12_Alloc_hiderC1EPcRKS3_(ptr noundef nonnull align 8 dereferenceable(8) %11, ptr noundef %12, ptr noundef nonnull align 1 dereferenceable(1) %13)
  %14 = load ptr, ptr %5, align 8
  %15 = icmp eq ptr %14, null
  br i1 %15, label %16, label %22

16:                                               ; preds = %3
  invoke void @_ZSt19__throw_logic_errorPKc(ptr noundef @.str.55) #16
          to label %17 unwind label %18

17:                                               ; preds = %16
  unreachable

18:                                               ; preds = %26, %22, %16
  %19 = landingpad { ptr, i32 }
          cleanup
  %20 = extractvalue { ptr, i32 } %19, 0
  store ptr %20, ptr %7, align 8
  %21 = extractvalue { ptr, i32 } %19, 1
  store i32 %21, ptr %8, align 4
  call void @_ZNSt7__cxx1112basic_stringIcSt11char_traitsIcESaIcEE12_Alloc_hiderD2Ev(ptr noundef nonnull align 8 dereferenceable(8) %11) #3
  br label %31

22:                                               ; preds = %3
  %23 = load ptr, ptr %5, align 8
  %24 = load ptr, ptr %5, align 8
  %25 = invoke noundef i64 @_ZNSt11char_traitsIcE6lengthEPKc(ptr noundef %24)
          to label %26 unwind label %18

26:                                               ; preds = %22
  %27 = getelementptr inbounds i8, ptr %23, i64 %25
  store ptr %27, ptr %9, align 8
  %28 = load ptr, ptr %5, align 8
  %29 = load ptr, ptr %9, align 8
  invoke void @_ZNSt7__cxx1112basic_stringIcSt11char_traitsIcESaIcEE12_M_constructIPKcEEvT_S8_St20forward_iterator_tag(ptr noundef nonnull align 8 dereferenceable(32) %10, ptr noundef %28, ptr noundef %29)
          to label %30 unwind label %18

30:                                               ; preds = %26
  ret void

31:                                               ; preds = %18
  %32 = load ptr, ptr %7, align 8
  %33 = load i32, ptr %8, align 4
  %34 = insertvalue { ptr, i32 } poison, ptr %32, 0
  %35 = insertvalue { ptr, i32 } %34, i32 %33, 1
  resume { ptr, i32 } %35
}

; Function Attrs: mustprogress uwtable
define internal noundef i32 @_ZL36cmBZRXMLParserUnknownEncodingHandlerPvPKcP12XML_Encoding(ptr noundef %0, ptr noundef %1, ptr noundef %2) #4 personality ptr @__gxx_personality_v0 {
  %4 = alloca i32, align 4
  %5 = alloca ptr, align 8
  %6 = alloca ptr, align 8
  %7 = alloca ptr, align 8
  %8 = alloca %"class.std::__cxx11::basic_string", align 8
  %9 = alloca %"class.std::allocator", align 1
  %10 = alloca ptr, align 8
  %11 = alloca i32, align 4
  %12 = alloca %"class.std::__cxx11::basic_string", align 8
  %13 = alloca %"class.std::allocator", align 1
  %14 = alloca i1, align 1
  %15 = alloca i1, align 1
  %16 = alloca %"class.std::__cxx11::basic_string", align 8
  %17 = alloca %"class.std::allocator", align 1
  %18 = alloca i1, align 1
  %19 = alloca i1, align 1
  %20 = alloca i32, align 4
  store ptr %0, ptr %5, align 8
  store ptr %1, ptr %6, align 8
  store ptr %2, ptr %7, align 8
  %21 = load ptr, ptr %6, align 8
  call void @_ZNSaIcEC1Ev(ptr noundef nonnull align 1 dereferenceable(1) %9) #3
  store i1 false, ptr %14, align 1
  store i1 false, ptr %15, align 1
  store i1 false, ptr %18, align 1
  store i1 false, ptr %19, align 1
  invoke void @_ZNSt7__cxx1112basic_stringIcSt11char_traitsIcESaIcEEC2IS3_EEPKcRKS3_(ptr noundef nonnull align 8 dereferenceable(32) %8, ptr noundef @.str.36, ptr noundef nonnull align 1 dereferenceable(1) %9)
          to label %22 unwind label %66

22:                                               ; preds = %3
  %23 = invoke noundef zeroext i1 @_ZSteqIcSt11char_traitsIcESaIcEEbPKT_RKNSt7__cxx1112basic_stringIS3_T0_T1_EE(ptr noundef %21, ptr noundef nonnull align 8 dereferenceable(32) %8)
          to label %24 unwind label %70

24:                                               ; preds = %22
  br i1 %23, label %35, label %25

25:                                               ; preds = %24
  %26 = load ptr, ptr %6, align 8
  call void @_ZNSaIcEC1Ev(ptr noundef nonnull align 1 dereferenceable(1) %13) #3
  store i1 true, ptr %14, align 1
  invoke void @_ZNSt7__cxx1112basic_stringIcSt11char_traitsIcESaIcEEC2IS3_EEPKcRKS3_(ptr noundef nonnull align 8 dereferenceable(32) %12, ptr noundef @.str.37, ptr noundef nonnull align 1 dereferenceable(1) %13)
          to label %27 unwind label %74

27:                                               ; preds = %25
  store i1 true, ptr %15, align 1
  %28 = invoke noundef zeroext i1 @_ZSteqIcSt11char_traitsIcESaIcEEbPKT_RKNSt7__cxx1112basic_stringIS3_T0_T1_EE(ptr noundef %26, ptr noundef nonnull align 8 dereferenceable(32) %12)
          to label %29 unwind label %78

29:                                               ; preds = %27
  br i1 %28, label %35, label %30

30:                                               ; preds = %29
  %31 = load ptr, ptr %6, align 8
  call void @_ZNSaIcEC1Ev(ptr noundef nonnull align 1 dereferenceable(1) %17) #3
  store i1 true, ptr %18, align 1
  invoke void @_ZNSt7__cxx1112basic_stringIcSt11char_traitsIcESaIcEEC2IS3_EEPKcRKS3_(ptr noundef nonnull align 8 dereferenceable(32) %16, ptr noundef @.str.38, ptr noundef nonnull align 1 dereferenceable(1) %17)
          to label %32 unwind label %82

32:                                               ; preds = %30
  store i1 true, ptr %19, align 1
  %33 = invoke noundef zeroext i1 @_ZSteqIcSt11char_traitsIcESaIcEEbPKT_RKNSt7__cxx1112basic_stringIS3_T0_T1_EE(ptr noundef %31, ptr noundef nonnull align 8 dereferenceable(32) %16)
          to label %34 unwind label %86

34:                                               ; preds = %32
  br label %35

35:                                               ; preds = %34, %29, %24
  %36 = phi i1 [ true, %29 ], [ true, %24 ], [ %33, %34 ]
  %37 = load i1, ptr %19, align 1
  br i1 %37, label %38, label %39

38:                                               ; preds = %35
  call void @_ZNSt7__cxx1112basic_stringIcSt11char_traitsIcESaIcEED1Ev(ptr noundef nonnull align 8 dereferenceable(32) %16) #3
  br label %39

39:                                               ; preds = %38, %35
  %40 = load i1, ptr %18, align 1
  br i1 %40, label %41, label %42

41:                                               ; preds = %39
  call void @_ZNSaIcED1Ev(ptr noundef nonnull align 1 dereferenceable(1) %17) #3
  br label %42

42:                                               ; preds = %41, %39
  %43 = load i1, ptr %15, align 1
  br i1 %43, label %44, label %45

44:                                               ; preds = %42
  call void @_ZNSt7__cxx1112basic_stringIcSt11char_traitsIcESaIcEED1Ev(ptr noundef nonnull align 8 dereferenceable(32) %12) #3
  br label %45

45:                                               ; preds = %44, %42
  %46 = load i1, ptr %14, align 1
  br i1 %46, label %47, label %48

47:                                               ; preds = %45
  call void @_ZNSaIcED1Ev(ptr noundef nonnull align 1 dereferenceable(1) %13) #3
  br label %48

48:                                               ; preds = %47, %45
  call void @_ZNSt7__cxx1112basic_stringIcSt11char_traitsIcESaIcEED1Ev(ptr noundef nonnull align 8 dereferenceable(32) %8) #3
  call void @_ZNSaIcED1Ev(ptr noundef nonnull align 1 dereferenceable(1) %9) #3
  br i1 %36, label %49, label %108

49:                                               ; preds = %48
  store i32 0, ptr %20, align 4
  br label %50

50:                                               ; preds = %63, %49
  %51 = load i32, ptr %20, align 4
  %52 = icmp ult i32 %51, 256
  br i1 %52, label %53, label %107

53:                                               ; preds = %50
  %54 = load i32, ptr %20, align 4
  %55 = zext i32 %54 to i64
  %56 = getelementptr inbounds [256 x i32], ptr @_ZZL36cmBZRXMLParserUnknownEncodingHandlerPvPKcP12XML_EncodingE6latin1, i64 0, i64 %55
  %57 = load i32, ptr %56, align 4
  %58 = load ptr, ptr %7, align 8
  %59 = getelementptr inbounds %struct.XML_Encoding, ptr %58, i32 0, i32 0
  %60 = load i32, ptr %20, align 4
  %61 = zext i32 %60 to i64
  %62 = getelementptr inbounds [256 x i32], ptr %59, i64 0, i64 %61
  store i32 %57, ptr %62, align 4
  br label %63

63:                                               ; preds = %53
  %64 = load i32, ptr %20, align 4
  %65 = add i32 %64, 1
  store i32 %65, ptr %20, align 4
  br label %50, !llvm.loop !13

66:                                               ; preds = %3
  %67 = landingpad { ptr, i32 }
          cleanup
  %68 = extractvalue { ptr, i32 } %67, 0
  store ptr %68, ptr %10, align 8
  %69 = extractvalue { ptr, i32 } %67, 1
  store i32 %69, ptr %11, align 4
  br label %106

70:                                               ; preds = %22
  %71 = landingpad { ptr, i32 }
          cleanup
  %72 = extractvalue { ptr, i32 } %71, 0
  store ptr %72, ptr %10, align 8
  %73 = extractvalue { ptr, i32 } %71, 1
  store i32 %73, ptr %11, align 4
  br label %105

74:                                               ; preds = %25
  %75 = landingpad { ptr, i32 }
          cleanup
  %76 = extractvalue { ptr, i32 } %75, 0
  store ptr %76, ptr %10, align 8
  %77 = extractvalue { ptr, i32 } %75, 1
  store i32 %77, ptr %11, align 4
  br label %101

78:                                               ; preds = %27
  %79 = landingpad { ptr, i32 }
          cleanup
  %80 = extractvalue { ptr, i32 } %79, 0
  store ptr %80, ptr %10, align 8
  %81 = extractvalue { ptr, i32 } %79, 1
  store i32 %81, ptr %11, align 4
  br label %97

82:                                               ; preds = %30
  %83 = landingpad { ptr, i32 }
          cleanup
  %84 = extractvalue { ptr, i32 } %83, 0
  store ptr %84, ptr %10, align 8
  %85 = extractvalue { ptr, i32 } %83, 1
  store i32 %85, ptr %11, align 4
  br label %93

86:                                               ; preds = %32
  %87 = landingpad { ptr, i32 }
          cleanup
  %88 = extractvalue { ptr, i32 } %87, 0
  store ptr %88, ptr %10, align 8
  %89 = extractvalue { ptr, i32 } %87, 1
  store i32 %89, ptr %11, align 4
  %90 = load i1, ptr %19, align 1
  br i1 %90, label %91, label %92

91:                                               ; preds = %86
  call void @_ZNSt7__cxx1112basic_stringIcSt11char_traitsIcESaIcEED1Ev(ptr noundef nonnull align 8 dereferenceable(32) %16) #3
  br label %92

92:                                               ; preds = %91, %86
  br label %93

93:                                               ; preds = %92, %82
  %94 = load i1, ptr %18, align 1
  br i1 %94, label %95, label %96

95:                                               ; preds = %93
  call void @_ZNSaIcED1Ev(ptr noundef nonnull align 1 dereferenceable(1) %17) #3
  br label %96

96:                                               ; preds = %95, %93
  br label %97

97:                                               ; preds = %96, %78
  %98 = load i1, ptr %15, align 1
  br i1 %98, label %99, label %100

99:                                               ; preds = %97
  call void @_ZNSt7__cxx1112basic_stringIcSt11char_traitsIcESaIcEED1Ev(ptr noundef nonnull align 8 dereferenceable(32) %12) #3
  br label %100

100:                                              ; preds = %99, %97
  br label %101

101:                                              ; preds = %100, %74
  %102 = load i1, ptr %14, align 1
  br i1 %102, label %103, label %104

103:                                              ; preds = %101
  call void @_ZNSaIcED1Ev(ptr noundef nonnull align 1 dereferenceable(1) %13) #3
  br label %104

104:                                              ; preds = %103, %101
  br label %105

105:                                              ; preds = %104, %70
  call void @_ZNSt7__cxx1112basic_stringIcSt11char_traitsIcESaIcEED1Ev(ptr noundef nonnull align 8 dereferenceable(32) %8) #3
  br label %106

106:                                              ; preds = %105, %66
  call void @_ZNSaIcED1Ev(ptr noundef nonnull align 1 dereferenceable(1) %9) #3
  br label %111

107:                                              ; preds = %50
  store i32 1, ptr %4, align 4
  br label %109

108:                                              ; preds = %48
  store i32 0, ptr %4, align 4
  br label %109

109:                                              ; preds = %108, %107
  %110 = load i32, ptr %4, align 4
  ret i32 %110

111:                                              ; preds = %106
  %112 = load ptr, ptr %10, align 8
  %113 = load i32, ptr %11, align 4
  %114 = insertvalue { ptr, i32 } poison, ptr %112, 0
  %115 = insertvalue { ptr, i32 } %114, i32 %113, 1
  resume { ptr, i32 } %115
}